target datalayout = "e-m:e-p270:32:32-p271:32:32-p272:64:64-i64:64-i128:128-f80:128-n8:16:32:64-S128"
target triple = "x86_64-pc-linux-gnu"

%struct.ECDSA_SIG_st = type { ptr, ptr }
%struct.wpacket_st = type { ptr, ptr, i64, i64, i64, ptr, i8 }
%struct.buf_mem_st = type { i64, ptr, i64, i64 }

; Function Attrs: nounwind uwtable
define i32 @i2d_ECDSA_SIG(ptr noundef %0, ptr noundef %1) #0 {
  %3 = alloca i32, align 4
  %4 = alloca ptr, align 8
  %5 = alloca ptr, align 8
  %6 = alloca ptr, align 8
  %7 = alloca i64, align 8
  %8 = alloca %struct.wpacket_st, align 8
  %9 = alloca i32, align 4
  store ptr %0, ptr %4, align 8, !tbaa !103
  store ptr %1, ptr %5, align 8, !tbaa !14
  call void @llvm.lifetime.start.p0(i64 8, ptr %6) #4
  store ptr null, ptr %6, align 8, !tbaa !110
  call void @llvm.lifetime.start.p0(i64 8, ptr %7) #4
  call void @llvm.lifetime.start.p0(i64 56, ptr %8) #4
  %10 = load ptr, ptr %5, align 8, !tbaa !14
  %11 = icmp eq ptr %10, null
  br i1 %11, label %12, label %17

12:                                               ; preds = %2
  %13 = call i32 @WPACKET_init_null(ptr noundef %8, i64 noundef 0)
  %14 = icmp ne i32 %13, 0
  br i1 %14, label %16, label %15

15:                                               ; preds = %12
  store i32 -1, ptr %3, align 4
  store i32 1, ptr %9, align 4
  br label %80

16:                                               ; preds = %12
  br label %39

17:                                               ; preds = %2
  %18 = load ptr, ptr %5, align 8, !tbaa !14
  %19 = load ptr, ptr %18, align 8, !tbaa !26
  %20 = icmp eq ptr %19, null
  br i1 %20, label %21, label %31

21:                                               ; preds = %17
  %22 = call ptr @BUF_MEM_new()
  store ptr %22, ptr %6, align 8, !tbaa !110
  %23 = icmp eq ptr %22, null
  br i1 %23, label %28, label %24

24:                                               ; preds = %21
  %25 = load ptr, ptr %6, align 8, !tbaa !110
  %26 = call i32 @WPACKET_init_len(ptr noundef %8, ptr noundef %25, i64 noundef 0)
  %27 = icmp ne i32 %26, 0
  br i1 %27, label %30, label %28

28:                                               ; preds = %24, %21
  %29 = load ptr, ptr %6, align 8, !tbaa !110
  call void @BUF_MEM_free(ptr noundef %29)
  store i32 -1, ptr %3, align 4
  store i32 1, ptr %9, align 4
  br label %80

30:                                               ; preds = %24
  br label %38

31:                                               ; preds = %17
  %32 = load ptr, ptr %5, align 8, !tbaa !14
  %33 = load ptr, ptr %32, align 8, !tbaa !26
  %34 = call i32 @WPACKET_init_static_len(ptr noundef %8, ptr noundef %33, i64 noundef -1, i64 noundef 0)
  %35 = icmp ne i32 %34, 0
  br i1 %35, label %37, label %36

36:                                               ; preds = %31
  store i32 -1, ptr %3, align 4
  store i32 1, ptr %9, align 4
  br label %80

37:                                               ; preds = %31
  br label %38

38:                                               ; preds = %37, %30
  br label %39

39:                                               ; preds = %38, %16
  %40 = load ptr, ptr %4, align 8, !tbaa !103
  %41 = getelementptr inbounds nuw %struct.ECDSA_SIG_st, ptr %40, i32 0, i32 0
  %42 = load ptr, ptr %41, align 8, !tbaa !105
  %43 = load ptr, ptr %4, align 8, !tbaa !103
  %44 = getelementptr inbounds nuw %struct.ECDSA_SIG_st, ptr %43, i32 0, i32 1
  %45 = load ptr, ptr %44, align 8, !tbaa !107
  %46 = call i32 @ossl_encode_der_dsa_sig(ptr noundef %8, ptr noundef %42, ptr noundef %45)
  %47 = icmp ne i32 %46, 0
  br i1 %47, label %48, label %54

48:                                               ; preds = %39
  %49 = call i32 @WPACKET_get_total_written(ptr noundef %8, ptr noundef %7)
  %50 = icmp ne i32 %49, 0
  br i1 %50, label %51, label %54

51:                                               ; preds = %48
  %52 = call i32 @WPACKET_finish(ptr noundef %8)
  %53 = icmp ne i32 %52, 0
  br i1 %53, label %56, label %54

54:                                               ; preds = %51, %48, %39
  %55 = load ptr, ptr %6, align 8, !tbaa !110
  call void @BUF_MEM_free(ptr noundef %55)
  call void @WPACKET_cleanup(ptr noundef %8)
  store i32 -1, ptr %3, align 4
  store i32 1, ptr %9, align 4
  br label %80

56:                                               ; preds = %51
  %57 = load ptr, ptr %5, align 8, !tbaa !14
  %58 = icmp ne ptr %57, null
  br i1 %58, label %59, label %77

59:                                               ; preds = %56
  %60 = load ptr, ptr %5, align 8, !tbaa !14
  %61 = load ptr, ptr %60, align 8, !tbaa !26
  %62 = icmp eq ptr %61, null
  br i1 %62, label %63, label %71

63:                                               ; preds = %59
  %64 = load ptr, ptr %6, align 8, !tbaa !110
  %65 = getelementptr inbounds nuw %struct.buf_mem_st, ptr %64, i32 0, i32 1
  %66 = load ptr, ptr %65, align 8, !tbaa !112
  %67 = load ptr, ptr %5, align 8, !tbaa !14
  store ptr %66, ptr %67, align 8, !tbaa !26
  %68 = load ptr, ptr %6, align 8, !tbaa !110
  %69 = getelementptr inbounds nuw %struct.buf_mem_st, ptr %68, i32 0, i32 1
  store ptr null, ptr %69, align 8, !tbaa !112
  %70 = load ptr, ptr %6, align 8, !tbaa !110
  call void @BUF_MEM_free(ptr noundef %70)
  br label %76

71:                                               ; preds = %59
  %72 = load i64, ptr %7, align 8, !tbaa !16
  %73 = load ptr, ptr %5, align 8, !tbaa !14
  %74 = load ptr, ptr %73, align 8, !tbaa !26
  %75 = getelementptr inbounds nuw i8, ptr %74, i64 %72
  store ptr %75, ptr %73, align 8, !tbaa !26
  br label %76

76:                                               ; preds = %71, %63
  br label %77

77:                                               ; preds = %76, %56
  %78 = load i64, ptr %7, align 8, !tbaa !16
  %79 = trunc i64 %78 to i32
  store i32 %79, ptr %3, align 4
  store i32 1, ptr %9, align 4
  br label %80

80:                                               ; preds = %77, %54, %36, %28, %15
  call void @llvm.lifetime.end.p0(i64 56, ptr %8) #4
  call void @llvm.lifetime.end.p0(i64 8, ptr %7) #4
  call void @llvm.lifetime.end.p0(i64 8, ptr %6) #4
  %81 = load i32, ptr %3, align 4
  ret i32 %81
}