; Function Attrs: nounwind uwtable
define i32 @i2d_ECDSA_SIG(ptr noundef readonly captures(none) %0, ptr noundef captures(address_is_null) %1) local_unnamed_addr #0 {
  %3 = alloca i64, align 8
  %4 = alloca %struct.wpacket_st, align 8
  call void @llvm.lifetime.start.p0(i64 8, ptr nonnull %3) #8
  call void @llvm.lifetime.start.p0(i64 56, ptr nonnull %4) #8
  %5 = icmp eq ptr %1, null
  br i1 %5, label %6, label %8

6:                                                ; preds = %2
  %7 = call i32 @WPACKET_init_null(ptr noundef nonnull %4, i64 noundef 0) #8
  %.not21 = icmp eq i32 %7, 0
  br i1 %.not21, label %42, label %19

8:                                                ; preds = %2
  %9 = load ptr, ptr %1, align 8, !tbaa !3
  %10 = icmp eq ptr %9, null
  br i1 %10, label %11, label %17

11:                                               ; preds = %8
  %12 = tail call ptr @BUF_MEM_new() #8
  %13 = icmp eq ptr %12, null
  br i1 %13, label %16, label %14

14:                                               ; preds = %11
  %15 = call i32 @WPACKET_init_len(ptr noundef nonnull %4, ptr noundef nonnull %12, i64 noundef 0) #8
  %.not20 = icmp eq i32 %15, 0
  br i1 %.not20, label %16, label %19

16:                                               ; preds = %14, %11
  call void @BUF_MEM_free(ptr noundef %12) #8
  br label %42

17:                                               ; preds = %8
  %18 = call i32 @WPACKET_init_static_len(ptr noundef nonnull %4, ptr noundef nonnull %9, i64 noundef -1, i64 noundef 0) #8
  %.not = icmp eq i32 %18, 0
  br i1 %.not, label %42, label %19

19:                                               ; preds = %14, %17, %6
  %.0 = phi ptr [ null, %6 ], [ %12, %14 ], [ null, %17 ]
  %20 = load ptr, ptr %0, align 8, !tbaa !75
  %21 = getelementptr inbounds nuw i8, ptr %0, i64 8
  %22 = load ptr, ptr %21, align 8, !tbaa !77
  %23 = call i32 @ossl_encode_der_dsa_sig(ptr noundef nonnull %4, ptr noundef %20, ptr noundef %22) #8
  %.not22 = icmp eq i32 %23, 0
  br i1 %.not22, label %28, label %24

24:                                               ; preds = %19
  %25 = call i32 @WPACKET_get_total_written(ptr noundef nonnull %4, ptr noundef nonnull %3) #8
  %.not23 = icmp eq i32 %25, 0
  br i1 %.not23, label %28, label %26

26:                                               ; preds = %24
  %27 = call i32 @WPACKET_finish(ptr noundef nonnull %4) #8
  %.not24 = icmp eq i32 %27, 0
  br i1 %.not24, label %28, label %29

28:                                               ; preds = %26, %24, %19
  call void @BUF_MEM_free(ptr noundef %.0) #8
  call void @WPACKET_cleanup(ptr noundef nonnull %4) #8
  br label %42

29:                                               ; preds = %26
  br i1 %5, label %39, label %30

30:                                               ; preds = %29
  %31 = load ptr, ptr %1, align 8, !tbaa !3
  %32 = icmp eq ptr %31, null
  br i1 %32, label %33, label %36

33:                                               ; preds = %30
  %34 = getelementptr inbounds nuw i8, ptr %.0, i64 8
  %35 = load ptr, ptr %34, align 8, !tbaa !80
  store ptr %35, ptr %1, align 8, !tbaa !3
  store ptr null, ptr %34, align 8, !tbaa !80
  call void @BUF_MEM_free(ptr noundef %.0) #8
  br label %39

36:                                               ; preds = %30
  %37 = load i64, ptr %3, align 8, !tbaa !82
  %38 = getelementptr inbounds nuw i8, ptr %31, i64 %37
  store ptr %38, ptr %1, align 8, !tbaa !3
  br label %39

39:                                               ; preds = %33, %36, %29
  %40 = load i64, ptr %3, align 8, !tbaa !82
  %41 = trunc i64 %40 to i32
  br label %42

42:                                               ; preds = %17, %6, %39, %28, %16
  %.015 = phi i32 [ %41, %39 ], [ -1, %28 ], [ -1, %16 ], [ -1, %6 ], [ -1, %17 ]
  call void @llvm.lifetime.end.p0(i64 56, ptr nonnull %4) #8
  call void @llvm.lifetime.end.p0(i64 8, ptr nonnull %3) #8
  ret i32 %.015
}